; ModuleID = '38/129.c'
source_filename = "38/129.c"
target datalayout = "e-m:e-p270:32:32-p271:32:32-p272:64:64-i64:64-f80:128-n8:16:32:64-S128"
target triple = "x86_64-pc-linux-gnu"

@.str = private unnamed_addr constant [3 x i8] c"%d\00", align 1
@.str.1 = private unnamed_addr constant [4 x i8] c"%lf\00", align 1
@.str.2 = private unnamed_addr constant [6 x i8] c"%.5f\0A\00", align 1

; Function Attrs: noinline nounwind uwtable
define dso_local i32 @main() #0 {
  %1 = alloca i32, align 4
  %2 = alloca i32, align 4
  %3 = alloca i32, align 4
  %4 = alloca i32, align 4
  %5 = alloca i32, align 4
  %6 = alloca [1100 x double], align 16
  %7 = alloca double, align 8
  %8 = alloca double, align 8
  %9 = alloca double, align 8
  %10 = alloca double, align 8
  store i32 0, i32* %1, align 4
  %11 = bitcast [1100 x double]* %6 to i8*
  call void @llvm.memset.p0i8.i64(i8* align 16 %11, i8 0, i64 8800, i1 false)
  store double 0.000000e+00, double* %7, align 8
  store double 0.000000e+00, double* %9, align 8
  %12 = call i32 (i8*, ...) @__isoc99_scanf(i8* getelementptr inbounds ([3 x i8], [3 x i8]* @.str, i64 0, i64 0), i32* %2)
  store i32 1, i32* %4, align 4
  br label %13

13:                                               ; preds = %86, %0
  %14 = load i32, i32* %4, align 4
  %15 = load i32, i32* %2, align 4
  %16 = icmp sle i32 %14, %15
  br i1 %16, label %17, label %89

17:                                               ; preds = %13
  %18 = call i32 (i8*, ...) @__isoc99_scanf(i8* getelementptr inbounds ([3 x i8], [3 x i8]* @.str, i64 0, i64 0), i32* %3)
  store i32 1, i32* %5, align 4
  br label %19

19:                                               ; preds = %34, %17
  %20 = load i32, i32* %5, align 4
  %21 = load i32, i32* %3, align 4
  %22 = icmp sle i32 %20, %21
  br i1 %22, label %23, label %37

23:                                               ; preds = %19
  %24 = load i32, i32* %5, align 4
  %25 = sext i32 %24 to i64
  %26 = getelementptr inbounds [1100 x double], [1100 x double]* %6, i64 0, i64 %25
  %27 = call i32 (i8*, ...) @__isoc99_scanf(i8* getelementptr inbounds ([4 x i8], [4 x i8]* @.str.1, i64 0, i64 0), double* %26)
  %28 = load double, double* %7, align 8
  %29 = load i32, i32* %5, align 4
  %30 = sext i32 %29 to i64
  %31 = getelementptr inbounds [1100 x double], [1100 x double]* %6, i64 0, i64 %30
  %32 = load double, double* %31, align 8
  %33 = fadd double %28, %32
  store double %33, double* %7, align 8
  br label %34

34:                                               ; preds = %23
  %35 = load i32, i32* %5, align 4
  %36 = add nsw i32 %35, 1
  store i32 %36, i32* %5, align 4
  br label %19

37:                                               ; preds = %19
  %38 = load double, double* %7, align 8
  %39 = load i32, i32* %3, align 4
  %40 = sitofp i32 %39 to double
  %41 = fdiv double %38, %40
  store double %41, double* %8, align 8
  store i32 1, i32* %5, align 4
  br label %42

42:                                               ; preds = %62, %37
  %43 = load i32, i32* %5, align 4
  %44 = load i32, i32* %3, align 4
  %45 = icmp sle i32 %43, %44
  br i1 %45, label %46, label %65

46:                                               ; preds = %42
  %47 = load double, double* %9, align 8
  %48 = load i32, i32* %5, align 4
  %49 = sext i32 %48 to i64
  %50 = getelementptr inbounds [1100 x double], [1100 x double]* %6, i64 0, i64 %49
  %51 = load double, double* %50, align 8
  %52 = load double, double* %8, align 8
  %53 = fsub double %51, %52
  %54 = load i32, i32* %5, align 4
  %55 = sext i32 %54 to i64
  %56 = getelementptr inbounds [1100 x double], [1100 x double]* %6, i64 0, i64 %55
  %57 = load double, double* %56, align 8
  %58 = load double, double* %8, align 8
  %59 = fsub double %57, %58
  %60 = fmul double %53, %59
  %61 = fadd double %47, %60
  store double %61, double* %9, align 8
  br label %62

62:                                               ; preds = %46
  %63 = load i32, i32* %5, align 4
  %64 = add nsw i32 %63, 1
  store i32 %64, i32* %5, align 4
  br label %42

65:                                               ; preds = %42
  %66 = load double, double* %9, align 8
  %67 = load i32, i32* %3, align 4
  %68 = sitofp i32 %67 to double
  %69 = fdiv double %66, %68
  store double %69, double* %9, align 8
  %70 = load double, double* %9, align 8
  %71 = call double @sqrt(double %70) #4
  store double %71, double* %10, align 8
  %72 = load double, double* %10, align 8
  %73 = call i32 (i8*, ...) @printf(i8* getelementptr inbounds ([6 x i8], [6 x i8]* @.str.2, i64 0, i64 0), double %72)
  store i32 1, i32* %5, align 4
  br label %74

74:                                               ; preds = %82, %65
  %75 = load i32, i32* %5, align 4
  %76 = load i32, i32* %3, align 4
  %77 = icmp sle i32 %75, %76
  br i1 %77, label %78, label %85

78:                                               ; preds = %74
  %79 = load i32, i32* %5, align 4
  %80 = sext i32 %79 to i64
  %81 = getelementptr inbounds [1100 x double], [1100 x double]* %6, i64 0, i64 %80
  store double 0.000000e+00, double* %81, align 8
  br label %82

82:                                               ; preds = %78
  %83 = load i32, i32* %5, align 4
  %84 = add nsw i32 %83, 1
  store i32 %84, i32* %5, align 4
  br label %74

85:                                               ; preds = %74
  store double 0.000000e+00, double* %7, align 8
  store double 0.000000e+00, double* %9, align 8
  br label %86

86:                                               ; preds = %85
  %87 = load i32, i32* %4, align 4
  %88 = add nsw i32 %87, 1
  store i32 %88, i32* %4, align 4
  br label %13

89:                                               ; preds = %13
  %90 = load i32, i32* %1, align 4
  ret i32 %90
}

; Function Attrs: argmemonly nounwind willreturn
declare void @llvm.memset.p0i8.i64(i8* nocapture writeonly, i8, i64, i1 immarg) #1

declare dso_local i32 @__isoc99_scanf(i8*, ...) #2

; Function Attrs: nounwind
declare dso_local double @sqrt(double) #3

declare dso_local i32 @printf(i8*, ...) #2


!llvm.module.flags = !{!0}
!llvm.ident = !{!1}

!0 = !{i32 1, !"wchar_size", i32 4}
!1 = !{!"clang version 10.0.0-4ubuntu1 "}
